target datalayout = "e-m:e-p270:32:32-p271:32:32-p272:64:64-i64:64-i128:128-f80:128-n8:16:32:64-S128"
target triple = "x86_64-pc-linux-gnu"

%struct.lua_State = type { i8, i8, i8, i8, i8, i8, i8, ptr, ptr, ptr, ptr, ptr, ptr, ptr, ptr, i32, i32, i16, i16, i32, ptr, ptr, ptr, ptr, ptr }

@.str.7 = private unnamed_addr constant [51 x i8] c"attempt to break across metamethod/C-call boundary\00", align 1

; Function Attrs: mustprogress uwtable
define dso_local noundef i32 @_Z9lua_breakP9lua_State(ptr noundef %0) #2 {
  %2 = alloca ptr, align 8
  store ptr %0, ptr %2, align 8, !tbaa !20
  %3 = load ptr, ptr %2, align 8, !tbaa !20
  %4 = getelementptr inbounds nuw %struct.lua_State, ptr %3, i32 0, i32 17
  %5 = load i16, ptr %4, align 8, !tbaa !72
  %6 = zext i16 %5 to i32
  %7 = load ptr, ptr %2, align 8, !tbaa !20
  %8 = getelementptr inbounds nuw %struct.lua_State, ptr %7, i32 0, i32 18
  %9 = load i16, ptr %8, align 2, !tbaa !91
  %10 = zext i16 %9 to i32
  %11 = icmp sgt i32 %6, %10
  br i1 %11, label %12, label %14

12:                                               ; preds = %1
  %13 = load ptr, ptr %2, align 8, !tbaa !20
  call void (ptr, ptr, ...) @_Z14luaG_runerrorLP9lua_StatePKcz(ptr noundef %13, ptr noundef @.str.7) #17
  unreachable

14:                                               ; preds = %1
  %15 = load ptr, ptr %2, align 8, !tbaa !20
  %16 = getelementptr inbounds nuw %struct.lua_State, ptr %15, i32 0, i32 3
  store i8 6, ptr %16, align 1, !tbaa !90
  ret i32 -1
}