; Function Attrs: mustprogress uwtable
define dso_local noundef i32 @_Z9lua_breakP9lua_State(ptr noundef %0) local_unnamed_addr #0 {
  %2 = getelementptr inbounds nuw i8, ptr %0, i64 80
  %3 = load i16, ptr %2, align 8, !tbaa !55
  %4 = getelementptr inbounds nuw i8, ptr %0, i64 82
  %5 = load i16, ptr %4, align 2, !tbaa !73
  %6 = icmp ugt i16 %3, %5
  br i1 %6, label %7, label %8

7:                                                ; preds = %1
  tail call void (ptr, ptr, ...) @_Z14luaG_runerrorLP9lua_StatePKcz(ptr noundef nonnull %0, ptr noundef nonnull @.str.7) #18
  unreachable

8:                                                ; preds = %1
  %9 = getelementptr inbounds nuw i8, ptr %0, i64 3
  store i8 6, ptr %9, align 1, !tbaa !72
  ret i32 -1
}